; Function Attrs: mustprogress uwtable
define dso_local void @_ZN4Luau14attachTypeDataERNS_12SourceModuleERNS_6ModuleE(ptr noundef nonnull readonly align 8 captures(none) dereferenceable(240) %0, ptr noundef nonnull align 8 dereferenceable(1328) %1) local_unnamed_addr #2 personality ptr @__gxx_personality_v0 {
  %3 = alloca %"class.Luau::TypeAttacher", align 8
  call void @llvm.lifetime.start.p0(i64 80, ptr nonnull %3) #21
  %4 = getelementptr inbounds nuw i8, ptr %0, i64 120
  %5 = load ptr, ptr %4, align 8, !tbaa !35
  store ptr getelementptr inbounds nuw inrange(-16, 504) (i8, ptr @_ZTVN4Luau12TypeAttacherE, i64 16), ptr %3, align 8, !tbaa !39
  %6 = getelementptr inbounds nuw i8, ptr %3, i64 8
  store ptr %1, ptr %6, align 8, !tbaa !41
  %7 = getelementptr inbounds nuw i8, ptr %3, i64 16
  store ptr %5, ptr %7, align 8, !tbaa !43
  %8 = getelementptr inbounds nuw i8, ptr %3, i64 24
  %9 = getelementptr inbounds nuw i8, ptr %3, i64 72
  store ptr %9, ptr %8, align 8, !tbaa !54
  %10 = getelementptr inbounds nuw i8, ptr %3, i64 32
  store i64 1, ptr %10, align 8, !tbaa !55
  %11 = getelementptr inbounds nuw i8, ptr %3, i64 40
  %12 = getelementptr inbounds nuw i8, ptr %3, i64 56
  call void @llvm.memset.p0.i64(ptr noundef nonnull align 8 dereferenceable(16) %11, i8 0, i64 16, i1 false)
  store float 1.000000e+00, ptr %12, align 8, !tbaa !56
  %13 = getelementptr inbounds nuw i8, ptr %3, i64 64
  call void @llvm.memset.p0.i64(ptr noundef nonnull align 8 dereferenceable(16) %13, i8 0, i64 16, i1 false)
  %14 = getelementptr inbounds nuw i8, ptr %0, i64 176
  %15 = load ptr, ptr %14, align 8, !tbaa !57
  %16 = load ptr, ptr %15, align 8, !tbaa !39
  %17 = load ptr, ptr %16, align 8
  invoke void %17(ptr noundef nonnull align 8 dereferenceable(49) %15, ptr noundef nonnull %3)
          to label %18 unwind label %29

18:                                               ; preds = %2
  store ptr getelementptr inbounds nuw inrange(-16, 504) (i8, ptr @_ZTVN4Luau12TypeAttacherE, i64 16), ptr %3, align 8, !tbaa !39
  %19 = load ptr, ptr %11, align 8, !tbaa !93
  %.not5.i.i.i.i.i = icmp eq ptr %19, null
  br i1 %.not5.i.i.i.i.i, label %_ZNSt10_HashtableIPKvSt4pairIKS1_PcESaIS5_ENSt8__detail10_Select1stESt8equal_toIS1_ESt4hashIS1_ENS7_18_Mod_range_hashingENS7_20_Default_ranged_hashENS7_20_Prime_rehash_policyENS7_17_Hashtable_traitsILb0ELb0ELb1EEEE5clearEv.exit.i.i.i, label %.lr.ph.i.i.i.i.i

.lr.ph.i.i.i.i.i:                                 ; preds = %18, %.lr.ph.i.i.i.i.i
  %.06.i.i.i.i.i = phi ptr [ %20, %.lr.ph.i.i.i.i.i ], [ %19, %18 ]
  %20 = load ptr, ptr %.06.i.i.i.i.i, align 8, !tbaa !94
  call void @_ZdlPvm(ptr noundef nonnull %.06.i.i.i.i.i, i64 noundef 24) #22
  %.not.i.i.i.i.i = icmp eq ptr %20, null
  br i1 %.not.i.i.i.i.i, label %_ZNSt10_HashtableIPKvSt4pairIKS1_PcESaIS5_ENSt8__detail10_Select1stESt8equal_toIS1_ESt4hashIS1_ENS7_18_Mod_range_hashingENS7_20_Default_ranged_hashENS7_20_Prime_rehash_policyENS7_17_Hashtable_traitsILb0ELb0ELb1EEEE5clearEv.exit.i.i.i, label %.lr.ph.i.i.i.i.i, !llvm.loop !95

_ZNSt10_HashtableIPKvSt4pairIKS1_PcESaIS5_ENSt8__detail10_Select1stESt8equal_toIS1_ESt4hashIS1_ENS7_18_Mod_range_hashingENS7_20_Default_ranged_hashENS7_20_Prime_rehash_policyENS7_17_Hashtable_traitsILb0ELb0ELb1EEEE5clearEv.exit.i.i.i: ; preds = %.lr.ph.i.i.i.i.i, %18
  %21 = load ptr, ptr %8, align 8, !tbaa !54
  %22 = load i64, ptr %10, align 8, !tbaa !55
  %23 = shl i64 %22, 3
  call void @llvm.memset.p0.i64(ptr align 8 %21, i8 0, i64 %23, i1 false)
  call void @llvm.memset.p0.i64(ptr noundef nonnull align 8 dereferenceable(16) %11, i8 0, i64 16, i1 false)
  %24 = load ptr, ptr %8, align 8, !tbaa !54
  %25 = icmp eq ptr %24, %9
  br i1 %25, label %_ZN4Luau12TypeAttacherD2Ev.exit, label %26

26:                                               ; preds = %_ZNSt10_HashtableIPKvSt4pairIKS1_PcESaIS5_ENSt8__detail10_Select1stESt8equal_toIS1_ESt4hashIS1_ENS7_18_Mod_range_hashingENS7_20_Default_ranged_hashENS7_20_Prime_rehash_policyENS7_17_Hashtable_traitsILb0ELb0ELb1EEEE5clearEv.exit.i.i.i
  %27 = load i64, ptr %10, align 8, !tbaa !55
  %28 = shl i64 %27, 3
  call void @_ZdlPvm(ptr noundef %24, i64 noundef %28) #22
  br label %_ZN4Luau12TypeAttacherD2Ev.exit

_ZN4Luau12TypeAttacherD2Ev.exit:                  ; preds = %_ZNSt10_HashtableIPKvSt4pairIKS1_PcESaIS5_ENSt8__detail10_Select1stESt8equal_toIS1_ESt4hashIS1_ENS7_18_Mod_range_hashingENS7_20_Default_ranged_hashENS7_20_Prime_rehash_policyENS7_17_Hashtable_traitsILb0ELb0ELb1EEEE5clearEv.exit.i.i.i, %26
  call void @llvm.lifetime.end.p0(i64 80, ptr nonnull %3) #21
  ret void

29:                                               ; preds = %2
  %30 = landingpad { ptr, i32 }
          cleanup
  call void @_ZN4Luau12TypeAttacherD2Ev(ptr noundef nonnull align 8 dereferenceable(80) %3) #21
  call void @llvm.lifetime.end.p0(i64 80, ptr nonnull %3) #21
  resume { ptr, i32 } %30
}